target datalayout = "e-m:e-p270:32:32-p271:32:32-p272:64:64-i64:64-i128:128-f80:128-n8:16:32:64-S128"
target triple = "x86_64-pc-linux-gnu"

%struct.SDL_GPUDevice = type { ptr, ptr, ptr, ptr, ptr, ptr, ptr, ptr, ptr, ptr, ptr, ptr, ptr, ptr, ptr, ptr, ptr, ptr, ptr, ptr, ptr, ptr, ptr, ptr, ptr, ptr, ptr, ptr, ptr, ptr, ptr, ptr, ptr, ptr, ptr, ptr, ptr, ptr, ptr, ptr, ptr, ptr, ptr, ptr, ptr, ptr, ptr, ptr, ptr, ptr, ptr, ptr, ptr, ptr, ptr, ptr, ptr, ptr, ptr, ptr, ptr, ptr, ptr, ptr, ptr, ptr, ptr, ptr, ptr, ptr, ptr, ptr, ptr, ptr, ptr, ptr, ptr, ptr, ptr, ptr, ptr, ptr, ptr, ptr, ptr, i32, i8 }
%struct.CommandBufferCommonHeader = type { ptr, %struct.RenderPass, i8, %struct.Pass, i8, %struct.Pass, i8, i8, i8 }
%struct.RenderPass = type { ptr, i8, [4 x ptr], i32, ptr }
%struct.Pass = type { ptr, i8 }
%struct.TextureCommonHeader = type { %struct.SDL_GPUTextureCreateInfo }
%struct.SDL_GPUTextureCreateInfo = type { i32, i32, i32, i32, i32, i32, i32, i32, i32 }
%struct.SDL_GPUTextureLocation = type { ptr, i32, i32, i32, i32, i32 }

@.str.4 = private unnamed_addr constant [26 x i8] c"Parameter '%s' is invalid\00", align 1
@.str.8 = private unnamed_addr constant [103 x i8] c"generated/home/dtcxzyw/WorkSpace/Projects/compilers/llvm-opt-benchmark/bench/sdl/SDL/src/gpu/SDL_gpu.c\00", align 1
@.str.286 = private unnamed_addr constant [10 x i8] c"copy_pass\00", align 1
@.str.287 = private unnamed_addr constant [7 x i8] c"source\00", align 1
@.str.288 = private unnamed_addr constant [12 x i8] c"destination\00", align 1
@SDL_CopyGPUTextureToTexture_REAL.sdl_assert_data = internal global { i8, [3 x i8], i32, ptr, ptr, i32, [4 x i8], ptr, ptr } { i8 0, [3 x i8] zeroinitializer, i32 0, ptr @.str.290, ptr null, i32 0, [4 x i8] zeroinitializer, ptr null, ptr null }, align 8
@__func__.SDL_CopyGPUTextureToTexture_REAL = private unnamed_addr constant [33 x i8] c"SDL_CopyGPUTextureToTexture_REAL\00", align 1
@SDL_CopyGPUTextureToTexture_REAL.sdl_assert_data.302 = internal global { i8, [3 x i8], i32, ptr, ptr, i32, [4 x i8], ptr, ptr } { i8 0, [3 x i8] zeroinitializer, i32 0, ptr @.str.303, ptr null, i32 0, [4 x i8] zeroinitializer, ptr null, ptr null }, align 8
@SDL_CopyGPUTextureToTexture_REAL.sdl_assert_data.304 = internal global { i8, [3 x i8], i32, ptr, ptr, i32, [4 x i8], ptr, ptr } { i8 0, [3 x i8] zeroinitializer, i32 0, ptr @.str.296, ptr null, i32 0, [4 x i8] zeroinitializer, ptr null, ptr null }, align 8
@SDL_CopyGPUTextureToTexture_REAL.sdl_assert_data.306 = internal global { i8, [3 x i8], i32, ptr, ptr, i32, [4 x i8], ptr, ptr } { i8 0, [3 x i8] zeroinitializer, i32 0, ptr @.str.307, ptr null, i32 0, [4 x i8] zeroinitializer, ptr null, ptr null }, align 8

; Function Attrs: nounwind uwtable
define hidden void @SDL_CopyGPUTextureToTexture_REAL(ptr noundef %0, ptr noundef %1, ptr noundef %2, i32 noundef %3, i32 noundef %4, i32 noundef %5, i1 noundef zeroext %6) #0 {
  %8 = alloca ptr, align 8
  %9 = alloca ptr, align 8
  %10 = alloca ptr, align 8
  %11 = alloca i32, align 4
  %12 = alloca i32, align 4
  %13 = alloca i32, align 4
  %14 = alloca i8, align 1
  %15 = alloca i32, align 4
  %16 = alloca i32, align 4
  %17 = alloca i32, align 4
  %18 = alloca i32, align 4
  %19 = alloca ptr, align 8
  %20 = alloca ptr, align 8
  %21 = alloca i32, align 4
  store ptr %0, ptr %8, align 8
  store ptr %1, ptr %9, align 8
  store ptr %2, ptr %10, align 8
  store i32 %3, ptr %11, align 4
  store i32 %4, ptr %12, align 4
  store i32 %5, ptr %13, align 4
  %22 = zext i1 %6 to i8
  store i8 %22, ptr %14, align 1
  %23 = load ptr, ptr %8, align 8
  %24 = icmp eq ptr %23, null
  br i1 %24, label %25, label %27

25:                                               ; preds = %7
  %26 = call zeroext i1 (ptr, ...) @SDL_SetError_REAL(ptr noundef @.str.4, ptr noundef @.str.286)
  br label %169

27:                                               ; preds = %7
  %28 = load ptr, ptr %9, align 8
  %29 = icmp eq ptr %28, null
  br i1 %29, label %30, label %32

30:                                               ; preds = %27
  %31 = call zeroext i1 (ptr, ...) @SDL_SetError_REAL(ptr noundef @.str.4, ptr noundef @.str.287)
  br label %169

32:                                               ; preds = %27
  %33 = load ptr, ptr %10, align 8
  %34 = icmp eq ptr %33, null
  br i1 %34, label %35, label %37

35:                                               ; preds = %32
  %36 = call zeroext i1 (ptr, ...) @SDL_SetError_REAL(ptr noundef @.str.4, ptr noundef @.str.288)
  br label %169

37:                                               ; preds = %32
  %38 = load ptr, ptr %8, align 8
  %39 = getelementptr inbounds nuw %struct.Pass, ptr %38, i32 0, i32 0
  %40 = load ptr, ptr %39, align 8
  %41 = getelementptr inbounds nuw %struct.CommandBufferCommonHeader, ptr %40, i32 0, i32 0
  %42 = load ptr, ptr %41, align 8
  %43 = getelementptr inbounds nuw %struct.SDL_GPUDevice, ptr %42, i32 0, i32 86
  %44 = load i8, ptr %43, align 4, !range !5, !noundef !6
  %45 = trunc i8 %44 to i1
  br i1 %45, label %46, label %151

46:                                               ; preds = %37
  %47 = load ptr, ptr %8, align 8
  %48 = getelementptr inbounds nuw %struct.Pass, ptr %47, i32 0, i32 1
  %49 = load i8, ptr %48, align 8, !range !5, !noundef !6
  %50 = trunc i8 %49 to i1
  br i1 %50, label %68, label %51

51:                                               ; preds = %46
  br label %52

52:                                               ; preds = %51
  br label %53

53:                                               ; preds = %52, %64
  call void @llvm.lifetime.start.p0(i64 4, ptr %15) #6
  %54 = call i32 @SDL_ReportAssertion_REAL(ptr noundef @SDL_CopyGPUTextureToTexture_REAL.sdl_assert_data, ptr noundef @__func__.SDL_CopyGPUTextureToTexture_REAL, ptr noundef @.str.8, i32 noundef 2547)
  store i32 %54, ptr %15, align 4
  %55 = load i32, ptr %15, align 4
  %56 = icmp eq i32 %55, 0
  br i1 %56, label %57, label %58

57:                                               ; preds = %53
  store i32 4, ptr %16, align 4
  br label %64

58:                                               ; preds = %53
  %59 = load i32, ptr %15, align 4
  %60 = icmp eq i32 %59, 1
  br i1 %60, label %61, label %62

61:                                               ; preds = %58
  call void @llvm.debugtrap()
  br label %62

62:                                               ; preds = %61, %58
  br label %63

63:                                               ; preds = %62
  store i32 5, ptr %16, align 4
  br label %64

64:                                               ; preds = %63, %57
  call void @llvm.lifetime.end.p0(i64 4, ptr %15) #6
  %65 = load i32, ptr %16, align 4
  switch i32 %65, label %170 [
    i32 4, label %53
    i32 5, label %66
  ]

66:                                               ; preds = %64
  br label %67

67:                                               ; preds = %66
  br label %169

68:                                               ; preds = %46
  %69 = load ptr, ptr %9, align 8
  %70 = getelementptr inbounds nuw %struct.SDL_GPUTextureLocation, ptr %69, i32 0, i32 0
  %71 = load ptr, ptr %70, align 8
  %72 = icmp eq ptr %71, null
  br i1 %72, label %73, label %90

73:                                               ; preds = %68
  br label %74

74:                                               ; preds = %73
  br label %75

75:                                               ; preds = %74, %86
  call void @llvm.lifetime.start.p0(i64 4, ptr %17) #6
  %76 = call i32 @SDL_ReportAssertion_REAL(ptr noundef @SDL_CopyGPUTextureToTexture_REAL.sdl_assert_data.302, ptr noundef @__func__.SDL_CopyGPUTextureToTexture_REAL, ptr noundef @.str.8, i32 noundef 2549)
  store i32 %76, ptr %17, align 4
  %77 = load i32, ptr %17, align 4
  %78 = icmp eq i32 %77, 0
  br i1 %78, label %79, label %80

79:                                               ; preds = %75
  store i32 8, ptr %16, align 4
  br label %86

80:                                               ; preds = %75
  %81 = load i32, ptr %17, align 4
  %82 = icmp eq i32 %81, 1
  br i1 %82, label %83, label %84

83:                                               ; preds = %80
  call void @llvm.debugtrap()
  br label %84

84:                                               ; preds = %83, %80
  br label %85

85:                                               ; preds = %84
  store i32 9, ptr %16, align 4
  br label %86

86:                                               ; preds = %85, %79
  call void @llvm.lifetime.end.p0(i64 4, ptr %17) #6
  %87 = load i32, ptr %16, align 4
  switch i32 %87, label %170 [
    i32 8, label %75
    i32 9, label %88
  ]

88:                                               ; preds = %86
  br label %89

89:                                               ; preds = %88
  br label %169

90:                                               ; preds = %68
  %91 = load ptr, ptr %10, align 8
  %92 = getelementptr inbounds nuw %struct.SDL_GPUTextureLocation, ptr %91, i32 0, i32 0
  %93 = load ptr, ptr %92, align 8
  %94 = icmp eq ptr %93, null
  br i1 %94, label %95, label %112

95:                                               ; preds = %90
  br label %96

96:                                               ; preds = %95
  br label %97

97:                                               ; preds = %96, %108
  call void @llvm.lifetime.start.p0(i64 4, ptr %18) #6
  %98 = call i32 @SDL_ReportAssertion_REAL(ptr noundef @SDL_CopyGPUTextureToTexture_REAL.sdl_assert_data.304, ptr noundef @__func__.SDL_CopyGPUTextureToTexture_REAL, ptr noundef @.str.8, i32 noundef 2553)
  store i32 %98, ptr %18, align 4
  %99 = load i32, ptr %18, align 4
  %100 = icmp eq i32 %99, 0
  br i1 %100, label %101, label %102

101:                                              ; preds = %97
  store i32 12, ptr %16, align 4
  br label %108

102:                                              ; preds = %97
  %103 = load i32, ptr %18, align 4
  %104 = icmp eq i32 %103, 1
  br i1 %104, label %105, label %106

105:                                              ; preds = %102
  call void @llvm.debugtrap()
  br label %106

106:                                              ; preds = %105, %102
  br label %107

107:                                              ; preds = %106
  store i32 13, ptr %16, align 4
  br label %108

108:                                              ; preds = %107, %101
  call void @llvm.lifetime.end.p0(i64 4, ptr %18) #6
  %109 = load i32, ptr %16, align 4
  switch i32 %109, label %170 [
    i32 12, label %97
    i32 13, label %110
  ]

110:                                              ; preds = %108
  br label %111

111:                                              ; preds = %110
  br label %169

112:                                              ; preds = %90
  call void @llvm.lifetime.start.p0(i64 8, ptr %19) #6
  %113 = load ptr, ptr %9, align 8
  %114 = getelementptr inbounds nuw %struct.SDL_GPUTextureLocation, ptr %113, i32 0, i32 0
  %115 = load ptr, ptr %114, align 8
  store ptr %115, ptr %19, align 8
  call void @llvm.lifetime.start.p0(i64 8, ptr %20) #6
  %116 = load ptr, ptr %10, align 8
  %117 = getelementptr inbounds nuw %struct.SDL_GPUTextureLocation, ptr %116, i32 0, i32 0
  %118 = load ptr, ptr %117, align 8
  store ptr %118, ptr %20, align 8
  %119 = load ptr, ptr %19, align 8
  %120 = getelementptr inbounds nuw %struct.TextureCommonHeader, ptr %119, i32 0, i32 0
  %121 = getelementptr inbounds nuw %struct.SDL_GPUTextureCreateInfo, ptr %120, i32 0, i32 1
  %122 = load i32, ptr %121, align 4
  %123 = load ptr, ptr %20, align 8
  %124 = getelementptr inbounds nuw %struct.TextureCommonHeader, ptr %123, i32 0, i32 0
  %125 = getelementptr inbounds nuw %struct.SDL_GPUTextureCreateInfo, ptr %124, i32 0, i32 1
  %126 = load i32, ptr %125, align 4
  %127 = icmp ne i32 %122, %126
  br i1 %127, label %128, label %147

128:                                              ; preds = %112
  br label %129

129:                                              ; preds = %128
  br label %130

130:                                              ; preds = %142, %129
  br label %131

131:                                              ; preds = %130
  call void @llvm.lifetime.start.p0(i64 4, ptr %21) #6
  %132 = call i32 @SDL_ReportAssertion_REAL(ptr noundef @SDL_CopyGPUTextureToTexture_REAL.sdl_assert_data.306, ptr noundef @__func__.SDL_CopyGPUTextureToTexture_REAL, ptr noundef @.str.8, i32 noundef 2560)
  store i32 %132, ptr %21, align 4
  %133 = load i32, ptr %21, align 4
  %134 = icmp eq i32 %133, 0
  br i1 %134, label %135, label %136

135:                                              ; preds = %131
  store i32 16, ptr %16, align 4
  br label %142

136:                                              ; preds = %131
  %137 = load i32, ptr %21, align 4
  %138 = icmp eq i32 %137, 1
  br i1 %138, label %139, label %140

139:                                              ; preds = %136
  call void @llvm.debugtrap()
  br label %140

140:                                              ; preds = %139, %136
  br label %141

141:                                              ; preds = %140
  store i32 17, ptr %16, align 4
  br label %142

142:                                              ; preds = %141, %135
  call void @llvm.lifetime.end.p0(i64 4, ptr %21) #6
  %143 = load i32, ptr %16, align 4
  switch i32 %143, label %170 [
    i32 16, label %130
    i32 17, label %144
  ]

144:                                              ; preds = %142
  br label %145

145:                                              ; preds = %144
  br label %146

146:                                              ; preds = %145
  store i32 1, ptr %16, align 4
  br label %148

147:                                              ; preds = %112
  store i32 0, ptr %16, align 4
  br label %148

148:                                              ; preds = %147, %146
  call void @llvm.lifetime.end.p0(i64 8, ptr %20) #6
  call void @llvm.lifetime.end.p0(i64 8, ptr %19) #6
  %149 = load i32, ptr %16, align 4
  switch i32 %149, label %170 [
    i32 0, label %150
    i32 1, label %169
  ]

150:                                              ; preds = %148
  br label %151

151:                                              ; preds = %150, %37
  %152 = load ptr, ptr %8, align 8
  %153 = getelementptr inbounds nuw %struct.Pass, ptr %152, i32 0, i32 0
  %154 = load ptr, ptr %153, align 8
  %155 = getelementptr inbounds nuw %struct.CommandBufferCommonHeader, ptr %154, i32 0, i32 0
  %156 = load ptr, ptr %155, align 8
  %157 = getelementptr inbounds nuw %struct.SDL_GPUDevice, ptr %156, i32 0, i32 56
  %158 = load ptr, ptr %157, align 8
  %159 = load ptr, ptr %8, align 8
  %160 = getelementptr inbounds nuw %struct.Pass, ptr %159, i32 0, i32 0
  %161 = load ptr, ptr %160, align 8
  %162 = load ptr, ptr %9, align 8
  %163 = load ptr, ptr %10, align 8
  %164 = load i32, ptr %11, align 4
  %165 = load i32, ptr %12, align 4
  %166 = load i32, ptr %13, align 4
  %167 = load i8, ptr %14, align 1, !range !5, !noundef !6
  %168 = trunc i8 %167 to i1
  call void %158(ptr noundef %161, ptr noundef %162, ptr noundef %163, i32 noundef %164, i32 noundef %165, i32 noundef %166, i1 noundef zeroext %168)
  br label %169

169:                                              ; preds = %151, %148, %111, %89, %67, %35, %30, %25
  ret void

170:                                              ; preds = %148, %142, %108, %86, %64
  unreachable
}