; Function Attrs: nounwind uwtable
define hidden void @SDL_CopyGPUTextureToTexture_REAL(ptr noundef readonly captures(address_is_null) %0, ptr noundef %1, ptr noundef %2, i32 noundef %3, i32 noundef %4, i32 noundef %5, i1 noundef zeroext %6) local_unnamed_addr #0 {
  %8 = icmp eq ptr %0, null
  br i1 %8, label %9, label %11

9:                                                ; preds = %7
  %10 = tail call zeroext i1 (ptr, ...) @SDL_SetError_REAL(ptr noundef nonnull @.str.4, ptr noundef nonnull @.str.286) #7
  br label %.thread

11:                                               ; preds = %7
  %12 = icmp eq ptr %1, null
  br i1 %12, label %13, label %15

13:                                               ; preds = %11
  %14 = tail call zeroext i1 (ptr, ...) @SDL_SetError_REAL(ptr noundef nonnull @.str.4, ptr noundef nonnull @.str.287) #7
  br label %.thread

15:                                               ; preds = %11
  %16 = icmp eq ptr %2, null
  br i1 %16, label %17, label %19

17:                                               ; preds = %15
  %18 = tail call zeroext i1 (ptr, ...) @SDL_SetError_REAL(ptr noundef nonnull @.str.4, ptr noundef nonnull @.str.288) #7
  br label %.thread

19:                                               ; preds = %15
  %20 = load ptr, ptr %0, align 8
  %21 = load ptr, ptr %20, align 8
  %22 = getelementptr inbounds nuw i8, ptr %21, i64 684
  %23 = load i8, ptr %22, align 4, !range !5, !noundef !6
  %24 = trunc nuw i8 %23 to i1
  br i1 %24, label %25, label %.thread63

25:                                               ; preds = %19
  %26 = getelementptr inbounds nuw i8, ptr %0, i64 8
  %27 = load i8, ptr %26, align 8, !range !5, !noundef !6
  %28 = trunc nuw i8 %27 to i1
  br i1 %28, label %31, label %.preheader69

.preheader69:                                     ; preds = %25, %.preheader69
  %29 = tail call i32 @SDL_ReportAssertion_REAL(ptr noundef nonnull @SDL_CopyGPUTextureToTexture_REAL.sdl_assert_data, ptr noundef nonnull @__func__.SDL_CopyGPUTextureToTexture_REAL, ptr noundef nonnull @.str.8, i32 noundef 2547) #7
  switch i32 %29, label %.thread [
    i32 0, label %.preheader69
    i32 1, label %30
  ]

30:                                               ; preds = %.preheader69
  tail call void @llvm.debugtrap()
  br label %.thread

31:                                               ; preds = %25
  %32 = load ptr, ptr %1, align 8
  %33 = icmp eq ptr %32, null
  br i1 %33, label %.preheader, label %36

.preheader:                                       ; preds = %31, %.preheader
  %34 = tail call i32 @SDL_ReportAssertion_REAL(ptr noundef nonnull @SDL_CopyGPUTextureToTexture_REAL.sdl_assert_data.302, ptr noundef nonnull @__func__.SDL_CopyGPUTextureToTexture_REAL, ptr noundef nonnull @.str.8, i32 noundef 2549) #7
  switch i32 %34, label %.thread [
    i32 0, label %.preheader
    i32 1, label %35
  ]

35:                                               ; preds = %.preheader
  tail call void @llvm.debugtrap()
  br label %.thread

36:                                               ; preds = %31
  %37 = load ptr, ptr %2, align 8
  %38 = icmp eq ptr %37, null
  br i1 %38, label %.preheader65, label %41

.preheader65:                                     ; preds = %36, %.preheader65
  %39 = tail call i32 @SDL_ReportAssertion_REAL(ptr noundef nonnull @SDL_CopyGPUTextureToTexture_REAL.sdl_assert_data.304, ptr noundef nonnull @__func__.SDL_CopyGPUTextureToTexture_REAL, ptr noundef nonnull @.str.8, i32 noundef 2553) #7
  switch i32 %39, label %.thread [
    i32 0, label %.preheader65
    i32 1, label %40
  ]

40:                                               ; preds = %.preheader65
  tail call void @llvm.debugtrap()
  br label %.thread

41:                                               ; preds = %36
  %42 = getelementptr inbounds nuw i8, ptr %32, i64 4
  %43 = load i32, ptr %42, align 4
  %44 = getelementptr inbounds nuw i8, ptr %37, i64 4
  %45 = load i32, ptr %44, align 4
  %.not.not = icmp eq i32 %43, %45
  br i1 %.not.not, label %.thread63, label %.preheader67

.preheader67:                                     ; preds = %41, %.preheader67
  %46 = tail call i32 @SDL_ReportAssertion_REAL(ptr noundef nonnull @SDL_CopyGPUTextureToTexture_REAL.sdl_assert_data.306, ptr noundef nonnull @__func__.SDL_CopyGPUTextureToTexture_REAL, ptr noundef nonnull @.str.8, i32 noundef 2560) #7
  switch i32 %46, label %.thread [
    i32 0, label %.preheader67
    i32 1, label %47
  ]

47:                                               ; preds = %.preheader67
  tail call void @llvm.debugtrap()
  br label %.thread

.thread63:                                        ; preds = %41, %19
  %48 = getelementptr inbounds nuw i8, ptr %21, i64 448
  %49 = load ptr, ptr %48, align 8
  tail call void %49(ptr noundef nonnull %20, ptr noundef nonnull %1, ptr noundef nonnull %2, i32 noundef %3, i32 noundef %4, i32 noundef %5, i1 noundef zeroext %6) #7
  br label %.thread

.thread:                                          ; preds = %.preheader69, %.preheader67, %.preheader65, %.preheader, %47, %40, %35, %30, %.thread63, %17, %13, %9
  ret void
}